; Function Attrs: mustprogress uwtable
define void @_ZNK7rocksdb9cassandra14ExpiringColumn9SerializeEPNSt7__cxx1112basic_stringIcSt11char_traitsIcESaIcEEE(ptr noundef nonnull readonly align 8 captures(none) dereferenceable(44) %0, ptr noundef nonnull %1) unnamed_addr #3 align 2 {
  tail call void @_ZNK7rocksdb9cassandra6Column9SerializeEPNSt7__cxx1112basic_stringIcSt11char_traitsIcESaIcEEE(ptr noundef nonnull align 8 dereferenceable(40) %0, ptr noundef %1)
  %3 = getelementptr inbounds nuw i8, ptr %0, i64 40
  %4 = load i32, ptr %3, align 8, !tbaa !79
  %5 = getelementptr inbounds nuw i8, ptr %1, i64 8
  br label %6

6:                                                ; preds = %6, %2
  %.04.i = phi i64 [ 0, %2 ], [ %13, %6 ]
  %.0.tr.i = trunc nuw i64 %.04.i to i32
  %7 = shl nuw nsw i32 %.0.tr.i, 3
  %8 = sub nuw nsw i32 24, %7
  %9 = ashr i32 %4, %8
  %10 = trunc i32 %9 to i8
  %11 = load i64, ptr %5, align 8, !tbaa !11
  %12 = tail call noundef nonnull align 8 dereferenceable(32) ptr @_ZNSt7__cxx1112basic_stringIcSt11char_traitsIcESaIcEE14_M_replace_auxEmmmc(ptr noundef nonnull align 8 dereferenceable(32) %1, i64 noundef %11, i64 noundef 0, i64 noundef 1, i8 noundef signext %10)
  %13 = add nuw nsw i64 %.04.i, 1
  %exitcond.not.i = icmp eq i64 %13, 4
  br i1 %exitcond.not.i, label %_ZN7rocksdb9cassandra9SerializeIiEEvT_PNSt7__cxx1112basic_stringIcSt11char_traitsIcESaIcEEE.exit, label %6, !llvm.loop !78

_ZN7rocksdb9cassandra9SerializeIiEEvT_PNSt7__cxx1112basic_stringIcSt11char_traitsIcESaIcEEE.exit: ; preds = %6
  ret void
}